target datalayout = "e-m:e-p270:32:32-p271:32:32-p272:64:64-i64:64-i128:128-f80:128-n8:16:32:64-S128"
target triple = "x86_64-pc-linux-gnu"

%struct.Param = type { %struct.Expr, i32, i32, i32, i32, i32, i32 }
%struct.Expr = type { i32 }
%struct.PlannerInfo = type { i32, ptr, ptr, i32, ptr, ptr, ptr, ptr, i32, ptr, ptr, ptr, ptr, ptr, ptr, ptr, ptr, i32, ptr, ptr, ptr, ptr, ptr, i8, ptr, ptr, ptr, ptr, ptr, i32, ptr, ptr, ptr, ptr, ptr, ptr, ptr, i32, ptr, ptr, ptr, i32, ptr, ptr, ptr, ptr, ptr, ptr, [8 x ptr], [8 x ptr], ptr, ptr, ptr, ptr, ptr, ptr, ptr, double, double, double, i32, i8, i8, i8, i8, i8, i8, i8, i32, ptr, ptr, i32, i8, i8, i32, ptr, ptr, ptr, ptr, ptr, ptr, i8, ptr }
%struct.List = type { i32, i32, i32, ptr, [0 x %union.ListCell] }
%union.ListCell = type { ptr }
%struct.PlannerParamItem = type { i32, ptr, i32 }
%struct.Node = type { i32 }
%struct.PlannerGlobal = type { i32, ptr, ptr, ptr, ptr, ptr, ptr, ptr, ptr, ptr, ptr, ptr, ptr, ptr, ptr, ptr, ptr, i32, i32, i32, i8, i8, i8, i8, i8, ptr }
%struct.Query = type { i32, i32, i32, i64, i8, ptr, i32, i8, i8, i8, i8, i8, i8, i8, i8, i8, i8, i8, ptr, ptr, ptr, ptr, ptr, i32, ptr, ptr, i32, ptr, ptr, ptr, ptr, ptr, i8, ptr, ptr, ptr, ptr, ptr, ptr, ptr, i32, ptr, ptr, ptr, ptr, i32, i32 }
%struct.MergeSupportFunc = type { %struct.Expr, i32, i32, i32 }

@.str = private unnamed_addr constant [37 x i8] c"MergeSupportFunc found outside MERGE\00", align 1
@.str.1 = private unnamed_addr constant [14 x i8] c"paramassign.c\00", align 1
@__func__.replace_outer_merge_support = private unnamed_addr constant [28 x i8] c"replace_outer_merge_support\00", align 1

; Function Attrs: inlinehint nounwind uwtable
define internal i32 @list_length(ptr noundef %0) #2 {
  %2 = alloca ptr, align 8
  store ptr %0, ptr %2, align 8
  %3 = load ptr, ptr %2, align 8
  %4 = icmp ne ptr %3, null
  br i1 %4, label %5, label %9

5:                                                ; preds = %1
  %6 = load ptr, ptr %2, align 8
  %7 = getelementptr inbounds nuw %struct.List, ptr %6, i32 0, i32 1
  %8 = load i32, ptr %7, align 4
  br label %10

9:                                                ; preds = %1
  br label %10

10:                                               ; preds = %9, %5
  %11 = phi i32 [ %8, %5 ], [ 0, %9 ]
  ret i32 %11
}

; Function Attrs: inlinehint nounwind uwtable
define internal ptr @newNode(i64 noundef %0, i32 noundef %1) #2 {
  %3 = alloca i64, align 8
  %4 = alloca i32, align 4
  %5 = alloca ptr, align 8
  store i64 %0, ptr %3, align 8
  store i32 %1, ptr %4, align 4
  call void @llvm.lifetime.start.p0(i64 8, ptr %5) #6
  %6 = load i64, ptr %3, align 8
  %7 = call ptr @palloc0(i64 noundef %6)
  store ptr %7, ptr %5, align 8
  %8 = load i32, ptr %4, align 4
  %9 = load ptr, ptr %5, align 8
  %10 = getelementptr inbounds nuw %struct.Node, ptr %9, i32 0, i32 0
  store i32 %8, ptr %10, align 4
  %11 = load ptr, ptr %5, align 8
  call void @llvm.lifetime.end.p0(i64 8, ptr %5) #6
  ret ptr %11
}

; Function Attrs: nounwind uwtable
define dso_local ptr @replace_outer_merge_support(ptr noundef %0, ptr noundef %1) #0 {
  %3 = alloca ptr, align 8
  %4 = alloca ptr, align 8
  %5 = alloca ptr, align 8
  %6 = alloca ptr, align 8
  %7 = alloca i32, align 4
  store ptr %0, ptr %3, align 8
  store ptr %1, ptr %4, align 8
  call void @llvm.lifetime.start.p0(i64 8, ptr %5) #6
  call void @llvm.lifetime.start.p0(i64 8, ptr %6) #6
  call void @llvm.lifetime.start.p0(i64 4, ptr %7) #6
  %8 = load ptr, ptr %4, align 8
  %9 = call i32 @exprType(ptr noundef %8)
  store i32 %9, ptr %7, align 4
  br label %10

10:                                               ; preds = %28, %2
  %11 = load ptr, ptr %3, align 8
  %12 = getelementptr inbounds nuw %struct.PlannerInfo, ptr %11, i32 0, i32 4
  %13 = load ptr, ptr %12, align 8
  store ptr %13, ptr %3, align 8
  %14 = load ptr, ptr %3, align 8
  %15 = icmp eq ptr %14, null
  br i1 %15, label %16, label %27

16:                                               ; preds = %10
  br label %17

17:                                               ; preds = %16
  br i1 true, label %18, label %20

18:                                               ; preds = %17
  %19 = call zeroext i1 @errstart_cold(i32 noundef 21, ptr noundef null) #7
  br i1 %19, label %22, label %24

20:                                               ; preds = %17
  %21 = call zeroext i1 @errstart(i32 noundef 21, ptr noundef null)
  br i1 %21, label %22, label %24

22:                                               ; preds = %20, %18
  %23 = call i32 (ptr, ...) @errmsg_internal(ptr noundef @.str)
  call void @errfinish(ptr noundef @.str.1, i32 noundef 334, ptr noundef @__func__.replace_outer_merge_support)
  br label %24

24:                                               ; preds = %22, %20, %18
  unreachable

25:                                               ; No predecessors!
  br label %26

26:                                               ; preds = %25
  br label %27

27:                                               ; preds = %26, %10
  br label %28

28:                                               ; preds = %27
  %29 = load ptr, ptr %3, align 8
  %30 = getelementptr inbounds nuw %struct.PlannerInfo, ptr %29, i32 0, i32 1
  %31 = load ptr, ptr %30, align 8
  %32 = getelementptr inbounds nuw %struct.Query, ptr %31, i32 0, i32 1
  %33 = load i32, ptr %32, align 4
  %34 = icmp ne i32 %33, 5
  br i1 %34, label %10, label %35, !llvm.loop !11

35:                                               ; preds = %28
  %36 = load ptr, ptr %4, align 8
  %37 = call ptr @copyObjectImpl(ptr noundef %36)
  store ptr %37, ptr %4, align 8
  %38 = call ptr @newNode(i64 noundef 24, i32 noundef 325)
  store ptr %38, ptr %6, align 8
  %39 = load ptr, ptr %4, align 8
  %40 = load ptr, ptr %6, align 8
  %41 = getelementptr inbounds nuw %struct.PlannerParamItem, ptr %40, i32 0, i32 1
  store ptr %39, ptr %41, align 8
  %42 = load ptr, ptr %3, align 8
  %43 = getelementptr inbounds nuw %struct.PlannerInfo, ptr %42, i32 0, i32 2
  %44 = load ptr, ptr %43, align 8
  %45 = getelementptr inbounds nuw %struct.PlannerGlobal, ptr %44, i32 0, i32 16
  %46 = load ptr, ptr %45, align 8
  %47 = call i32 @list_length(ptr noundef %46)
  %48 = load ptr, ptr %6, align 8
  %49 = getelementptr inbounds nuw %struct.PlannerParamItem, ptr %48, i32 0, i32 2
  store i32 %47, ptr %49, align 8
  %50 = load ptr, ptr %3, align 8
  %51 = getelementptr inbounds nuw %struct.PlannerInfo, ptr %50, i32 0, i32 2
  %52 = load ptr, ptr %51, align 8
  %53 = getelementptr inbounds nuw %struct.PlannerGlobal, ptr %52, i32 0, i32 16
  %54 = load ptr, ptr %53, align 8
  %55 = load i32, ptr %7, align 4
  %56 = call ptr @lappend_oid(ptr noundef %54, i32 noundef %55)
  %57 = load ptr, ptr %3, align 8
  %58 = getelementptr inbounds nuw %struct.PlannerInfo, ptr %57, i32 0, i32 2
  %59 = load ptr, ptr %58, align 8
  %60 = getelementptr inbounds nuw %struct.PlannerGlobal, ptr %59, i32 0, i32 16
  store ptr %56, ptr %60, align 8
  %61 = load ptr, ptr %3, align 8
  %62 = getelementptr inbounds nuw %struct.PlannerInfo, ptr %61, i32 0, i32 5
  %63 = load ptr, ptr %62, align 8
  %64 = load ptr, ptr %6, align 8
  %65 = call ptr @lappend(ptr noundef %63, ptr noundef %64)
  %66 = load ptr, ptr %3, align 8
  %67 = getelementptr inbounds nuw %struct.PlannerInfo, ptr %66, i32 0, i32 5
  store ptr %65, ptr %67, align 8
  %68 = call ptr @newNode(i64 noundef 28, i32 noundef 8)
  store ptr %68, ptr %5, align 8
  %69 = load ptr, ptr %5, align 8
  %70 = getelementptr inbounds nuw %struct.Param, ptr %69, i32 0, i32 1
  store i32 1, ptr %70, align 4
  %71 = load ptr, ptr %6, align 8
  %72 = getelementptr inbounds nuw %struct.PlannerParamItem, ptr %71, i32 0, i32 2
  %73 = load i32, ptr %72, align 8
  %74 = load ptr, ptr %5, align 8
  %75 = getelementptr inbounds nuw %struct.Param, ptr %74, i32 0, i32 2
  store i32 %73, ptr %75, align 4
  %76 = load i32, ptr %7, align 4
  %77 = load ptr, ptr %5, align 8
  %78 = getelementptr inbounds nuw %struct.Param, ptr %77, i32 0, i32 3
  store i32 %76, ptr %78, align 4
  %79 = load ptr, ptr %5, align 8
  %80 = getelementptr inbounds nuw %struct.Param, ptr %79, i32 0, i32 4
  store i32 -1, ptr %80, align 4
  %81 = load ptr, ptr %5, align 8
  %82 = getelementptr inbounds nuw %struct.Param, ptr %81, i32 0, i32 5
  store i32 0, ptr %82, align 4
  %83 = load ptr, ptr %4, align 8
  %84 = getelementptr inbounds nuw %struct.MergeSupportFunc, ptr %83, i32 0, i32 3
  %85 = load i32, ptr %84, align 4
  %86 = load ptr, ptr %5, align 8
  %87 = getelementptr inbounds nuw %struct.Param, ptr %86, i32 0, i32 6
  store i32 %85, ptr %87, align 4
  %88 = load ptr, ptr %5, align 8
  call void @llvm.lifetime.end.p0(i64 4, ptr %7) #6
  call void @llvm.lifetime.end.p0(i64 8, ptr %6) #6
  call void @llvm.lifetime.end.p0(i64 8, ptr %5) #6
  ret ptr %88
}