; Function Attrs: nounwind uwtable
define dso_local noundef ptr @replace_outer_merge_support(ptr noundef readonly captures(none) %0, ptr noundef %1) local_unnamed_addr #0 {
  %3 = tail call i32 @exprType(ptr noundef %1) #4
  br label %4

4:                                                ; preds = %11, %2
  %.0 = phi ptr [ %0, %2 ], [ %6, %11 ]
  %5 = getelementptr inbounds nuw i8, ptr %.0, i64 32
  %6 = load ptr, ptr %5, align 8
  %7 = icmp eq ptr %6, null
  br i1 %7, label %8, label %11

8:                                                ; preds = %4
  %9 = tail call zeroext i1 @errstart_cold(i32 noundef 21, ptr noundef null) #5
  tail call void @llvm.assume(i1 %9)
  %10 = tail call i32 (ptr, ...) @errmsg_internal(ptr noundef nonnull @.str) #4
  tail call void @errfinish(ptr noundef nonnull @.str.1, i32 noundef 334, ptr noundef nonnull @__func__.replace_outer_merge_support) #4
  unreachable

11:                                               ; preds = %4
  %12 = getelementptr inbounds nuw i8, ptr %6, i64 8
  %13 = load ptr, ptr %12, align 8
  %14 = getelementptr inbounds nuw i8, ptr %13, i64 4
  %15 = load i32, ptr %14, align 4
  %.not = icmp eq i32 %15, 5
  br i1 %.not, label %16, label %4, !llvm.loop !9

16:                                               ; preds = %11
  %17 = tail call ptr @copyObjectImpl(ptr noundef %1) #4
  %18 = tail call noundef ptr @palloc0(i64 noundef 24) #4
  store i32 325, ptr %18, align 4
  %19 = getelementptr inbounds nuw i8, ptr %18, i64 8
  store ptr %17, ptr %19, align 8
  %20 = getelementptr inbounds nuw i8, ptr %6, i64 16
  %21 = load ptr, ptr %20, align 8
  %22 = getelementptr inbounds nuw i8, ptr %21, i64 128
  %23 = load ptr, ptr %22, align 8
  %.not.i = icmp eq ptr %23, null
  br i1 %.not.i, label %list_length.exit, label %24

24:                                               ; preds = %16
  %25 = getelementptr inbounds nuw i8, ptr %23, i64 4
  %26 = load i32, ptr %25, align 4
  br label %list_length.exit

list_length.exit:                                 ; preds = %16, %24
  %27 = phi i32 [ %26, %24 ], [ 0, %16 ]
  %28 = getelementptr inbounds nuw i8, ptr %18, i64 16
  store i32 %27, ptr %28, align 8
  %29 = load ptr, ptr %20, align 8
  %30 = getelementptr inbounds nuw i8, ptr %29, i64 128
  %31 = load ptr, ptr %30, align 8
  %32 = tail call ptr @lappend_oid(ptr noundef %31, i32 noundef %3) #4
  %33 = load ptr, ptr %20, align 8
  %34 = getelementptr inbounds nuw i8, ptr %33, i64 128
  store ptr %32, ptr %34, align 8
  %35 = getelementptr inbounds nuw i8, ptr %6, i64 40
  %36 = load ptr, ptr %35, align 8
  %37 = tail call ptr @lappend(ptr noundef %36, ptr noundef nonnull %18) #4
  store ptr %37, ptr %35, align 8
  %38 = tail call noundef ptr @palloc0(i64 noundef 28) #4
  store i32 8, ptr %38, align 4
  %39 = getelementptr inbounds nuw i8, ptr %38, i64 4
  store i32 1, ptr %39, align 4
  %40 = load i32, ptr %28, align 8
  %41 = getelementptr inbounds nuw i8, ptr %38, i64 8
  store i32 %40, ptr %41, align 4
  %42 = getelementptr inbounds nuw i8, ptr %38, i64 12
  store i32 %3, ptr %42, align 4
  %43 = getelementptr inbounds nuw i8, ptr %38, i64 16
  store i32 -1, ptr %43, align 4
  %44 = getelementptr inbounds nuw i8, ptr %38, i64 20
  store i32 0, ptr %44, align 4
  %45 = getelementptr inbounds nuw i8, ptr %17, i64 12
  %46 = load i32, ptr %45, align 4
  %47 = getelementptr inbounds nuw i8, ptr %38, i64 24
  store i32 %46, ptr %47, align 4
  ret ptr %38
}